target datalayout = "e-m:e-p270:32:32-p271:32:32-p272:64:64-i64:64-i128:128-f80:128-n8:16:32:64-S128"
target triple = "x86_64-unknown-linux-gnu"

%"class.std::__cxx11::basic_string" = type { %"struct.std::__cxx11::basic_string<char>::_Alloc_hider", i64, %union.anon }
%"struct.std::__cxx11::basic_string<char>::_Alloc_hider" = type { ptr }
%union.anon = type { i64, [8 x i8] }
%struct.stat = type { i64, i64, i64, i32, i32, i32, i32, i64, i64, i64, i64, %struct.timespec, %struct.timespec, %struct.timespec, [3 x i64] }
%struct.timespec = type { i64, i64 }
%"class.rocksdb::FSWritableFile.base" = type <{ ptr, i64, i64, i32, i32, i8 }>
%"class.rocksdb::PosixWritableFile" = type <{ %"class.rocksdb::FSWritableFile.base", [7 x i8], %"class.std::__cxx11::basic_string", i8, [3 x i8], i32, i64, i64, i8, i8, i8, [5 x i8] }>

; Function Attrs: mustprogress nounwind uwtable
define linkonce_odr noundef ptr @_ZN7rocksdb14EncodeVarint64EPcm(ptr noundef %dst, i64 noundef %v) #3 comdat {
entry:
  %dst.addr = alloca ptr, align 8
  %v.addr = alloca i64, align 8
  %ptr = alloca ptr, align 8
  store ptr %dst, ptr %dst.addr, align 8
  store i64 %v, ptr %v.addr, align 8
  %0 = load ptr, ptr %dst.addr, align 8
  store ptr %0, ptr %ptr, align 8
  br label %while.cond

while.cond:                                       ; preds = %while.body, %entry
  %1 = load i64, ptr %v.addr, align 8
  %cmp = icmp uge i64 %1, 128
  br i1 %cmp, label %while.body, label %while.end

while.body:                                       ; preds = %while.cond
  %2 = load i64, ptr %v.addr, align 8
  %and = and i64 %2, 127
  %or = or i64 %and, 128
  %conv = trunc i64 %or to i8
  %3 = load ptr, ptr %ptr, align 8
  %incdec.ptr = getelementptr inbounds i8, ptr %3, i32 1
  store ptr %incdec.ptr, ptr %ptr, align 8
  store i8 %conv, ptr %3, align 1
  %4 = load i64, ptr %v.addr, align 8
  %shr = lshr i64 %4, 7
  store i64 %shr, ptr %v.addr, align 8
  br label %while.cond, !llvm.loop !7

while.end:                                        ; preds = %while.cond
  %5 = load i64, ptr %v.addr, align 8
  %conv1 = trunc i64 %5 to i8
  %6 = load ptr, ptr %ptr, align 8
  %incdec.ptr2 = getelementptr inbounds i8, ptr %6, i32 1
  store ptr %incdec.ptr2, ptr %ptr, align 8
  store i8 %conv1, ptr %6, align 1
  %7 = load ptr, ptr %ptr, align 8
  ret ptr %7
}

; Function Attrs: mustprogress uwtable
define noundef i64 @_ZN7rocksdb11PosixHelper19GetUniqueIdFromFileEiPcm(i32 noundef %fd, ptr noundef %id, i64 noundef %max_size) #0 align 2 {
entry:
  %retval = alloca i64, align 8
  %fd.addr = alloca i32, align 4
  %id.addr = alloca ptr, align 8
  %max_size.addr = alloca i64, align 8
  %buf = alloca %struct.stat, align 8
  %result = alloca i32, align 4
  %version = alloca i64, align 8
  %uversion = alloca i64, align 8
  %rid = alloca ptr, align 8
  store i32 %fd, ptr %fd.addr, align 4
  store ptr %id, ptr %id.addr, align 8
  store i64 %max_size, ptr %max_size.addr, align 8
  %0 = load i64, ptr %max_size.addr, align 8
  %cmp = icmp ult i64 %0, 30
  br i1 %cmp, label %if.then, label %if.end

if.then:                                          ; preds = %entry
  store i64 0, ptr %retval, align 8
  br label %return

if.end:                                           ; preds = %entry
  %1 = load i32, ptr %fd.addr, align 4
  %call = call i32 @fstat(i32 noundef %1, ptr noundef %buf) #15
  store i32 %call, ptr %result, align 4
  %2 = load i32, ptr %result, align 4
  %cmp1 = icmp eq i32 %2, -1
  br i1 %cmp1, label %if.then2, label %if.end3

if.then2:                                         ; preds = %if.end
  store i64 0, ptr %retval, align 8
  br label %return

if.end3:                                          ; preds = %if.end
  store i64 0, ptr %version, align 8
  %3 = load i32, ptr %fd.addr, align 4
  %call4 = call i32 (i32, i64, ...) @ioctl(i32 noundef %3, i64 noundef 2148038145, ptr noundef %version) #15
  store i32 %call4, ptr %result, align 4
  %4 = load i32, ptr %result, align 4
  %cmp5 = icmp eq i32 %4, -1
  br i1 %cmp5, label %if.then6, label %if.end7

if.then6:                                         ; preds = %if.end3
  store i64 0, ptr %retval, align 8
  br label %return

if.end7:                                          ; preds = %if.end3
  %5 = load i64, ptr %version, align 8
  store i64 %5, ptr %uversion, align 8
  %6 = load ptr, ptr %id.addr, align 8
  store ptr %6, ptr %rid, align 8
  %7 = load ptr, ptr %rid, align 8
  %st_dev = getelementptr inbounds %struct.stat, ptr %buf, i32 0, i32 0
  %8 = load i64, ptr %st_dev, align 8
  %call8 = call noundef ptr @_ZN7rocksdb14EncodeVarint64EPcm(ptr noundef %7, i64 noundef %8)
  store ptr %call8, ptr %rid, align 8
  %9 = load ptr, ptr %rid, align 8
  %st_ino = getelementptr inbounds %struct.stat, ptr %buf, i32 0, i32 1
  %10 = load i64, ptr %st_ino, align 8
  %call9 = call noundef ptr @_ZN7rocksdb14EncodeVarint64EPcm(ptr noundef %9, i64 noundef %10)
  store ptr %call9, ptr %rid, align 8
  %11 = load ptr, ptr %rid, align 8
  %12 = load i64, ptr %uversion, align 8
  %call10 = call noundef ptr @_ZN7rocksdb14EncodeVarint64EPcm(ptr noundef %11, i64 noundef %12)
  store ptr %call10, ptr %rid, align 8
  %13 = load ptr, ptr %rid, align 8
  %14 = load ptr, ptr %id.addr, align 8
  %sub.ptr.lhs.cast = ptrtoint ptr %13 to i64
  %sub.ptr.rhs.cast = ptrtoint ptr %14 to i64
  %sub.ptr.sub = sub i64 %sub.ptr.lhs.cast, %sub.ptr.rhs.cast
  store i64 %sub.ptr.sub, ptr %retval, align 8
  br label %return

return:                                           ; preds = %if.end7, %if.then6, %if.then2, %if.then
  %15 = load i64, ptr %retval, align 8
  ret i64 %15
}

; Function Attrs: mustprogress uwtable
define noundef i64 @_ZNK7rocksdb17PosixWritableFile11GetUniqueIdEPcm(ptr noundef nonnull align 8 dereferenceable(99) %this, ptr noundef %id, i64 noundef %max_size) unnamed_addr #0 align 2 {
entry:
  %this.addr = alloca ptr, align 8
  %id.addr = alloca ptr, align 8
  %max_size.addr = alloca i64, align 8
  store ptr %this, ptr %this.addr, align 8
  store ptr %id, ptr %id.addr, align 8
  store i64 %max_size, ptr %max_size.addr, align 8
  %this1 = load ptr, ptr %this.addr, align 8
  %fd_ = getelementptr inbounds %"class.rocksdb::PosixWritableFile", ptr %this1, i32 0, i32 5
  %0 = load i32, ptr %fd_, align 4
  %1 = load ptr, ptr %id.addr, align 8
  %2 = load i64, ptr %max_size.addr, align 8
  %call = call noundef i64 @_ZN7rocksdb11PosixHelper19GetUniqueIdFromFileEiPcm(i32 noundef %0, ptr noundef %1, i64 noundef %2)
  ret i64 %call
}