; Function Attrs: mustprogress nounwind uwtable
define noundef i64 @_ZNK7rocksdb17PosixWritableFile11GetUniqueIdEPcm(ptr nocapture noundef nonnull readonly align 8 dereferenceable(99) %this, ptr noundef %id, i64 noundef %max_size) unnamed_addr #3 align 2 {
entry:
  %buf.i = alloca %struct.stat, align 8
  %version.i = alloca i64, align 8
  %fd_ = getelementptr inbounds i8, ptr %this, i64 76
  %0 = load i32, ptr %fd_, align 4
  call void @llvm.lifetime.start.p0(i64 144, ptr nonnull %buf.i)
  call void @llvm.lifetime.start.p0(i64 8, ptr nonnull %version.i)
  %cmp.i = icmp ult i64 %max_size, 30
  br i1 %cmp.i, label %_ZN7rocksdb11PosixHelper19GetUniqueIdFromFileEiPcm.exit, label %if.end.i

if.end.i:                                         ; preds = %entry
  %call.i = call i32 @fstat(i32 noundef %0, ptr noundef nonnull %buf.i) #25
  %cmp1.i = icmp eq i32 %call.i, -1
  br i1 %cmp1.i, label %_ZN7rocksdb11PosixHelper19GetUniqueIdFromFileEiPcm.exit, label %if.end3.i

if.end3.i:                                        ; preds = %if.end.i
  store i64 0, ptr %version.i, align 8
  %call4.i = call i32 (i32, i64, ...) @ioctl(i32 noundef %0, i64 noundef 2148038145, ptr noundef nonnull %version.i) #25
  %cmp5.i = icmp eq i32 %call4.i, -1
  br i1 %cmp5.i, label %_ZN7rocksdb11PosixHelper19GetUniqueIdFromFileEiPcm.exit, label %if.end7.i

if.end7.i:                                        ; preds = %if.end3.i
  %1 = load i64, ptr %version.i, align 8
  %2 = load i64, ptr %buf.i, align 8
  %cmp6.i.i = icmp ugt i64 %2, 127
  br i1 %cmp6.i.i, label %while.body.i.i, label %_ZN7rocksdb14EncodeVarint64EPcm.exit.i

while.body.i.i:                                   ; preds = %if.end7.i, %while.body.i.i
  %ptr.08.i.i = phi ptr [ %incdec.ptr.i.i, %while.body.i.i ], [ %id, %if.end7.i ]
  %v.addr.07.i.i = phi i64 [ %shr.i.i, %while.body.i.i ], [ %2, %if.end7.i ]
  %3 = trunc i64 %v.addr.07.i.i to i8
  %conv.i.i = or i8 %3, -128
  %incdec.ptr.i.i = getelementptr inbounds i8, ptr %ptr.08.i.i, i64 1
  store i8 %conv.i.i, ptr %ptr.08.i.i, align 1
  %shr.i.i = lshr i64 %v.addr.07.i.i, 7
  %cmp.i.i = icmp ugt i64 %v.addr.07.i.i, 16383
  br i1 %cmp.i.i, label %while.body.i.i, label %_ZN7rocksdb14EncodeVarint64EPcm.exit.i, !llvm.loop !33

_ZN7rocksdb14EncodeVarint64EPcm.exit.i:           ; preds = %while.body.i.i, %if.end7.i
  %v.addr.0.lcssa.i.i = phi i64 [ %2, %if.end7.i ], [ %shr.i.i, %while.body.i.i ]
  %ptr.0.lcssa.i.i = phi ptr [ %id, %if.end7.i ], [ %incdec.ptr.i.i, %while.body.i.i ]
  %conv1.i.i = trunc i64 %v.addr.0.lcssa.i.i to i8
  %incdec.ptr2.i.i = getelementptr inbounds i8, ptr %ptr.0.lcssa.i.i, i64 1
  store i8 %conv1.i.i, ptr %ptr.0.lcssa.i.i, align 1
  %st_ino.i = getelementptr inbounds i8, ptr %buf.i, i64 8
  %4 = load i64, ptr %st_ino.i, align 8
  %cmp6.i7.i = icmp ugt i64 %4, 127
  br i1 %cmp6.i7.i, label %while.body.i12.i, label %_ZN7rocksdb14EncodeVarint64EPcm.exit19.i

while.body.i12.i:                                 ; preds = %_ZN7rocksdb14EncodeVarint64EPcm.exit.i, %while.body.i12.i
  %ptr.08.i13.i = phi ptr [ %incdec.ptr.i16.i, %while.body.i12.i ], [ %incdec.ptr2.i.i, %_ZN7rocksdb14EncodeVarint64EPcm.exit.i ]
  %v.addr.07.i14.i = phi i64 [ %shr.i17.i, %while.body.i12.i ], [ %4, %_ZN7rocksdb14EncodeVarint64EPcm.exit.i ]
  %5 = trunc i64 %v.addr.07.i14.i to i8
  %conv.i15.i = or i8 %5, -128
  %incdec.ptr.i16.i = getelementptr inbounds i8, ptr %ptr.08.i13.i, i64 1
  store i8 %conv.i15.i, ptr %ptr.08.i13.i, align 1
  %shr.i17.i = lshr i64 %v.addr.07.i14.i, 7
  %cmp.i18.i = icmp ugt i64 %v.addr.07.i14.i, 16383
  br i1 %cmp.i18.i, label %while.body.i12.i, label %_ZN7rocksdb14EncodeVarint64EPcm.exit19.i, !llvm.loop !33

_ZN7rocksdb14EncodeVarint64EPcm.exit19.i:         ; preds = %while.body.i12.i, %_ZN7rocksdb14EncodeVarint64EPcm.exit.i
  %v.addr.0.lcssa.i8.i = phi i64 [ %4, %_ZN7rocksdb14EncodeVarint64EPcm.exit.i ], [ %shr.i17.i, %while.body.i12.i ]
  %ptr.0.lcssa.i9.i = phi ptr [ %incdec.ptr2.i.i, %_ZN7rocksdb14EncodeVarint64EPcm.exit.i ], [ %incdec.ptr.i16.i, %while.body.i12.i ]
  %conv1.i10.i = trunc i64 %v.addr.0.lcssa.i8.i to i8
  %incdec.ptr2.i11.i = getelementptr inbounds i8, ptr %ptr.0.lcssa.i9.i, i64 1
  store i8 %conv1.i10.i, ptr %ptr.0.lcssa.i9.i, align 1
  %cmp6.i20.i = icmp ugt i64 %1, 127
  br i1 %cmp6.i20.i, label %while.body.i25.i, label %_ZN7rocksdb14EncodeVarint64EPcm.exit32.i

while.body.i25.i:                                 ; preds = %_ZN7rocksdb14EncodeVarint64EPcm.exit19.i, %while.body.i25.i
  %ptr.08.i26.i = phi ptr [ %incdec.ptr.i29.i, %while.body.i25.i ], [ %incdec.ptr2.i11.i, %_ZN7rocksdb14EncodeVarint64EPcm.exit19.i ]
  %v.addr.07.i27.i = phi i64 [ %shr.i30.i, %while.body.i25.i ], [ %1, %_ZN7rocksdb14EncodeVarint64EPcm.exit19.i ]
  %6 = trunc i64 %v.addr.07.i27.i to i8
  %conv.i28.i = or i8 %6, -128
  %incdec.ptr.i29.i = getelementptr inbounds i8, ptr %ptr.08.i26.i, i64 1
  store i8 %conv.i28.i, ptr %ptr.08.i26.i, align 1
  %shr.i30.i = lshr i64 %v.addr.07.i27.i, 7
  %cmp.i31.i = icmp ugt i64 %v.addr.07.i27.i, 16383
  br i1 %cmp.i31.i, label %while.body.i25.i, label %_ZN7rocksdb14EncodeVarint64EPcm.exit32.i, !llvm.loop !33

_ZN7rocksdb14EncodeVarint64EPcm.exit32.i:         ; preds = %while.body.i25.i, %_ZN7rocksdb14EncodeVarint64EPcm.exit19.i
  %v.addr.0.lcssa.i21.i = phi i64 [ %1, %_ZN7rocksdb14EncodeVarint64EPcm.exit19.i ], [ %shr.i30.i, %while.body.i25.i ]
  %ptr.0.lcssa.i22.i = phi ptr [ %incdec.ptr2.i11.i, %_ZN7rocksdb14EncodeVarint64EPcm.exit19.i ], [ %incdec.ptr.i29.i, %while.body.i25.i ]
  %conv1.i23.i = trunc i64 %v.addr.0.lcssa.i21.i to i8
  %incdec.ptr2.i24.i = getelementptr inbounds i8, ptr %ptr.0.lcssa.i22.i, i64 1
  store i8 %conv1.i23.i, ptr %ptr.0.lcssa.i22.i, align 1
  %sub.ptr.lhs.cast.i = ptrtoint ptr %incdec.ptr2.i24.i to i64
  %sub.ptr.rhs.cast.i = ptrtoint ptr %id to i64
  %sub.ptr.sub.i = sub i64 %sub.ptr.lhs.cast.i, %sub.ptr.rhs.cast.i
  br label %_ZN7rocksdb11PosixHelper19GetUniqueIdFromFileEiPcm.exit

_ZN7rocksdb11PosixHelper19GetUniqueIdFromFileEiPcm.exit: ; preds = %entry, %if.end.i, %if.end3.i, %_ZN7rocksdb14EncodeVarint64EPcm.exit32.i
  %retval.0.i = phi i64 [ %sub.ptr.sub.i, %_ZN7rocksdb14EncodeVarint64EPcm.exit32.i ], [ 0, %entry ], [ 0, %if.end.i ], [ 0, %if.end3.i ]
  call void @llvm.lifetime.end.p0(i64 144, ptr nonnull %buf.i)
  call void @llvm.lifetime.end.p0(i64 8, ptr nonnull %version.i)
  ret i64 %retval.0.i
}